target datalayout = "e-m:e-p270:32:32-p271:32:32-p272:64:64-i64:64-i128:128-f80:128-n8:16:32:64-S128"
target triple = "x86_64-pc-linux-gnu"

%struct.fieldnode = type { i16, i16, i16, i16, i16, i32, i32, i32, i32, i16, i16, i16, i16, i32, i32, i32, i32, ptr, ptr, ptr, ptr, ptr, ptr, ptr, ptr }
%struct._win_st = type { i16, i16, i16, i16, i16, i16, i16, i32, i32, i8, i8, i8, i8, i8, i8, i8, i8, i8, i32, ptr, i16, i16, i32, i32, ptr, %struct.pdat, i16 }
%struct.pdat = type { i16, i16, i16, i16, i16, i16 }

; Function Attrs: nounwind uwtable
define internal void @Window_To_Buffer(ptr noundef %0, ptr noundef %1) #0 {
  %3 = alloca ptr, align 8
  %4 = alloca ptr, align 8
  %5 = alloca i32, align 4
  %6 = alloca i32, align 4
  %7 = alloca ptr, align 8
  %8 = alloca i32, align 4
  %9 = alloca i32, align 4
  %10 = alloca i32, align 4
  %11 = alloca i32, align 4
  store ptr %0, ptr %3, align 8, !tbaa !20
  store ptr %1, ptr %4, align 8, !tbaa !17
  call void @llvm.lifetime.start.p0(i64 4, ptr %5) #9
  call void @llvm.lifetime.start.p0(i64 4, ptr %6) #9
  store i32 0, ptr %6, align 4, !tbaa !35
  call void @llvm.lifetime.start.p0(i64 8, ptr %7) #9
  call void @llvm.lifetime.start.p0(i64 4, ptr %8) #9
  call void @llvm.lifetime.start.p0(i64 4, ptr %9) #9
  call void @llvm.lifetime.start.p0(i64 4, ptr %10) #9
  %12 = load ptr, ptr %4, align 8, !tbaa !17
  %13 = getelementptr inbounds nuw %struct.fieldnode, ptr %12, i32 0, i32 13
  %14 = load i32, ptr %13, align 4, !tbaa !50
  store i32 %14, ptr %5, align 4, !tbaa !35
  %15 = load ptr, ptr %4, align 8, !tbaa !17
  %16 = getelementptr inbounds nuw %struct.fieldnode, ptr %15, i32 0, i32 23
  %17 = load ptr, ptr %16, align 8, !tbaa !54
  store ptr %17, ptr %7, align 8, !tbaa !55
  %18 = load ptr, ptr %3, align 8, !tbaa !20
  %19 = icmp ne ptr null, %18
  br i1 %19, label %20, label %26

20:                                               ; preds = %2
  %21 = load ptr, ptr %3, align 8, !tbaa !20
  %22 = getelementptr inbounds nuw %struct._win_st, ptr %21, i32 0, i32 2
  %23 = load i16, ptr %22, align 4, !tbaa !38
  %24 = sext i16 %23 to i32
  %25 = add nsw i32 %24, 1
  br label %27

26:                                               ; preds = %2
  br label %27

27:                                               ; preds = %26, %20
  %28 = phi i32 [ %25, %20 ], [ -1, %26 ]
  store i32 %28, ptr %9, align 4, !tbaa !35
  %29 = load ptr, ptr %3, align 8, !tbaa !20
  %30 = icmp ne ptr null, %29
  br i1 %30, label %31, label %37

31:                                               ; preds = %27
  %32 = load ptr, ptr %3, align 8, !tbaa !20
  %33 = getelementptr inbounds nuw %struct._win_st, ptr %32, i32 0, i32 3
  %34 = load i16, ptr %33, align 2, !tbaa !56
  %35 = sext i16 %34 to i32
  %36 = add nsw i32 %35, 1
  br label %38

37:                                               ; preds = %27
  br label %38

38:                                               ; preds = %37, %31
  %39 = phi i32 [ %36, %31 ], [ -1, %37 ]
  store i32 %39, ptr %10, align 4, !tbaa !35
  store i32 0, ptr %8, align 4, !tbaa !35
  br label %40

40:                                               ; preds = %67, %38
  %41 = load i32, ptr %8, align 4, !tbaa !35
  %42 = load i32, ptr %9, align 4, !tbaa !35
  %43 = icmp slt i32 %41, %42
  br i1 %43, label %44, label %50

44:                                               ; preds = %40
  %45 = load i32, ptr %8, align 4, !tbaa !35
  %46 = load ptr, ptr %4, align 8, !tbaa !17
  %47 = getelementptr inbounds nuw %struct.fieldnode, ptr %46, i32 0, i32 5
  %48 = load i32, ptr %47, align 4, !tbaa !27
  %49 = icmp slt i32 %45, %48
  br label %50

50:                                               ; preds = %44, %40
  %51 = phi i1 [ false, %40 ], [ %49, %44 ]
  br i1 %51, label %52, label %70

52:                                               ; preds = %50
  %53 = load ptr, ptr %3, align 8, !tbaa !20
  %54 = load i32, ptr %8, align 4, !tbaa !35
  %55 = call i32 @wmove(ptr noundef %53, i32 noundef %54, i32 noundef 0)
  %56 = load ptr, ptr %3, align 8, !tbaa !20
  %57 = load ptr, ptr %7, align 8, !tbaa !55
  %58 = load i32, ptr %6, align 4, !tbaa !35
  %59 = sext i32 %58 to i64
  %60 = getelementptr inbounds i8, ptr %57, i64 %59
  %61 = load ptr, ptr %4, align 8, !tbaa !17
  %62 = getelementptr inbounds nuw %struct.fieldnode, ptr %61, i32 0, i32 6
  %63 = load i32, ptr %62, align 8, !tbaa !29
  %64 = call i32 @winnstr(ptr noundef %56, ptr noundef %60, i32 noundef %63)
  %65 = load i32, ptr %6, align 4, !tbaa !35
  %66 = add nsw i32 %65, %64
  store i32 %66, ptr %6, align 4, !tbaa !35
  br label %67

67:                                               ; preds = %52
  %68 = load i32, ptr %8, align 4, !tbaa !35
  %69 = add nsw i32 %68, 1
  store i32 %69, ptr %8, align 4, !tbaa !35
  br label %40, !llvm.loop !64

70:                                               ; preds = %50
  %71 = load ptr, ptr %7, align 8, !tbaa !55
  %72 = load i32, ptr %6, align 4, !tbaa !35
  %73 = sext i32 %72 to i64
  %74 = getelementptr inbounds i8, ptr %71, i64 %73
  store i8 0, ptr %74, align 1, !tbaa !65
  %75 = load i32, ptr %5, align 4, !tbaa !35
  %76 = icmp ne i32 %75, 32
  br i1 %76, label %77, label %97

77:                                               ; preds = %70
  call void @llvm.lifetime.start.p0(i64 4, ptr %11) #9
  store i32 0, ptr %11, align 4, !tbaa !35
  br label %78

78:                                               ; preds = %91, %77
  %79 = load i32, ptr %11, align 4, !tbaa !35
  %80 = load i32, ptr %6, align 4, !tbaa !35
  %81 = icmp slt i32 %79, %80
  br i1 %81, label %82, label %96

82:                                               ; preds = %78
  %83 = load ptr, ptr %7, align 8, !tbaa !55
  %84 = load i8, ptr %83, align 1, !tbaa !65
  %85 = sext i8 %84 to i32
  %86 = load i32, ptr %5, align 4, !tbaa !35
  %87 = icmp eq i32 %85, %86
  br i1 %87, label %88, label %90

88:                                               ; preds = %82
  %89 = load ptr, ptr %7, align 8, !tbaa !55
  store i8 32, ptr %89, align 1, !tbaa !65
  br label %90

90:                                               ; preds = %88, %82
  br label %91

91:                                               ; preds = %90
  %92 = load i32, ptr %11, align 4, !tbaa !35
  %93 = add nsw i32 %92, 1
  store i32 %93, ptr %11, align 4, !tbaa !35
  %94 = load ptr, ptr %7, align 8, !tbaa !55
  %95 = getelementptr inbounds nuw i8, ptr %94, i32 1
  store ptr %95, ptr %7, align 8, !tbaa !55
  br label %78, !llvm.loop !66

96:                                               ; preds = %78
  call void @llvm.lifetime.end.p0(i64 4, ptr %11) #9
  br label %97

97:                                               ; preds = %96, %70
  call void @llvm.lifetime.end.p0(i64 4, ptr %10) #9
  call void @llvm.lifetime.end.p0(i64 4, ptr %9) #9
  call void @llvm.lifetime.end.p0(i64 4, ptr %8) #9
  call void @llvm.lifetime.end.p0(i64 8, ptr %7) #9
  call void @llvm.lifetime.end.p0(i64 4, ptr %6) #9
  call void @llvm.lifetime.end.p0(i64 4, ptr %5) #9
  ret void
}