; Function Attrs: nounwind uwtable
define internal fastcc void @Window_To_Buffer(ptr noundef %0, ptr noundef readonly captures(none) %1) unnamed_addr #0 {
  %3 = getelementptr inbounds nuw i8, ptr %1, i64 36
  %4 = load i32, ptr %3, align 4, !tbaa !48
  %5 = getelementptr inbounds nuw i8, ptr %1, i64 104
  %6 = load ptr, ptr %5, align 8, !tbaa !52
  %.not = icmp eq ptr %0, null
  br i1 %.not, label %.critedge.thread, label %7

7:                                                ; preds = %2
  %8 = getelementptr inbounds nuw i8, ptr %0, i64 4
  %9 = load i16, ptr %8, align 4, !tbaa !35
  %10 = sext i16 %9 to i32
  %11 = getelementptr inbounds nuw i8, ptr %1, i64 12
  %12 = icmp sgt i16 %9, -1
  br i1 %12, label %.lr.ph, label %.critedge.thread

.lr.ph:                                           ; preds = %7
  %13 = getelementptr inbounds nuw i8, ptr %1, i64 16
  br label %14

14:                                               ; preds = %.lr.ph, %17
  %.02734 = phi i32 [ 0, %.lr.ph ], [ %23, %17 ]
  %.02933 = phi i32 [ 0, %.lr.ph ], [ %24, %17 ]
  %15 = load i32, ptr %11, align 4, !tbaa !24
  %16 = icmp slt i32 %.02933, %15
  br i1 %16, label %17, label %.critedge

17:                                               ; preds = %14
  %18 = tail call i32 @wmove(ptr noundef nonnull %0, i32 noundef %.02933, i32 noundef 0) #13
  %19 = sext i32 %.02734 to i64
  %20 = getelementptr inbounds i8, ptr %6, i64 %19
  %21 = load i32, ptr %13, align 8, !tbaa !26
  %22 = tail call i32 @winnstr(ptr noundef nonnull %0, ptr noundef %20, i32 noundef %21) #13
  %23 = add nsw i32 %22, %.02734
  %24 = add nuw nsw i32 %.02933, 1
  %exitcond.not = icmp eq i32 %.02933, %10
  br i1 %exitcond.not, label %.critedge, label %14, !llvm.loop !53

.critedge.thread:                                 ; preds = %7, %2
  store i8 0, ptr %6, align 1, !tbaa !54
  br label %.loopexit

.critedge:                                        ; preds = %14, %17
  %.027.lcssa = phi i32 [ %.02734, %14 ], [ %23, %17 ]
  %25 = sext i32 %.027.lcssa to i64
  %26 = getelementptr inbounds i8, ptr %6, i64 %25
  store i8 0, ptr %26, align 1, !tbaa !54
  %.not32 = icmp ne i32 %4, 32
  %27 = icmp sgt i32 %.027.lcssa, 0
  %or.cond = and i1 %.not32, %27
  br i1 %or.cond, label %.lr.ph39, label %.loopexit

.lr.ph39:                                         ; preds = %.critedge, %32
  %.038 = phi i32 [ %33, %32 ], [ 0, %.critedge ]
  %.02837 = phi ptr [ %34, %32 ], [ %6, %.critedge ]
  %28 = load i8, ptr %.02837, align 1, !tbaa !54
  %29 = sext i8 %28 to i32
  %30 = icmp eq i32 %4, %29
  br i1 %30, label %31, label %32

31:                                               ; preds = %.lr.ph39
  store i8 32, ptr %.02837, align 1, !tbaa !54
  br label %32

32:                                               ; preds = %.lr.ph39, %31
  %33 = add nuw nsw i32 %.038, 1
  %34 = getelementptr inbounds nuw i8, ptr %.02837, i64 1
  %exitcond40.not = icmp eq i32 %33, %.027.lcssa
  br i1 %exitcond40.not, label %.loopexit, label %.lr.ph39, !llvm.loop !55

.loopexit:                                        ; preds = %32, %.critedge.thread, %.critedge
  ret void
}